target datalayout = "e-m:e-p270:32:32-p271:32:32-p272:64:64-i64:64-i128:128-f80:128-n8:16:32:64-S128"
target triple = "x86_64-pc-linux-gnu"

%struct.If_Cut_t_ = type <{ float, float, float, float, i32, i32, i32, i64, [0 x i32] }>
%struct.If_Man_t_ = type { ptr, ptr, ptr, ptr, ptr, ptr, ptr, ptr, [5 x i32], i32, float, float, float, float, i32, float, i32, i32, [4 x ptr], ptr, i32, i32, i32, ptr, [3 x [32 x i32]], i32, i32, i32, ptr, ptr, ptr, ptr, ptr, ptr, ptr, i32, i32, i32, [16 x i32], i32, i32, i32, i32, ptr, ptr, ptr, ptr, ptr, i32, i32, [32 x i32], [32 x i32], i32, i32, i32, i32, ptr, [16 x ptr], [16 x ptr], [16 x ptr], [16 x ptr], [16 x ptr], [16 x ptr], [16 x ptr], ptr, ptr, ptr, ptr, [32 x i8], i32, i32, i32, [6 x i64], [2 x i32], [2 x i32], ptr, [15 x i32], ptr, ptr, ptr, [16 x i32], ptr, ptr, ptr, ptr, [2 x i32], [2 x i32], [2 x ptr], ptr }
%struct.If_Obj_t_ = type { i32, i32, i32, i32, i32, i32, ptr, ptr, ptr, float, float, float, %union.anon, ptr, %struct.If_Cut_t_ }
%union.anon = type { ptr }
%struct.Vec_Ptr_t_ = type { i32, i32, ptr }

; Function Attrs: inlinehint nounwind uwtable
define internal ptr @Vec_PtrEntry(ptr noundef %0, i32 noundef %1) #2 {
  %3 = alloca ptr, align 8
  %4 = alloca i32, align 4
  store ptr %0, ptr %3, align 8, !tbaa !134
  store i32 %1, ptr %4, align 4, !tbaa !8
  %5 = load ptr, ptr %3, align 8, !tbaa !134
  %6 = getelementptr inbounds nuw %struct.Vec_Ptr_t_, ptr %5, i32 0, i32 2
  %7 = load ptr, ptr %6, align 8, !tbaa !137
  %8 = load i32, ptr %4, align 4, !tbaa !8
  %9 = sext i32 %8 to i64
  %10 = getelementptr inbounds ptr, ptr %7, i64 %9
  %11 = load ptr, ptr %10, align 8, !tbaa !138
  ret ptr %11
}

; Function Attrs: inlinehint nounwind uwtable
define internal ptr @If_ObjCutBest(ptr noundef %0) #2 {
  %2 = alloca ptr, align 8
  store ptr %0, ptr %2, align 8, !tbaa !99
  %3 = load ptr, ptr %2, align 8, !tbaa !99
  %4 = getelementptr inbounds nuw %struct.If_Obj_t_, ptr %3, i32 0, i32 14
  ret ptr %4
}

; Function Attrs: inlinehint nounwind uwtable
define internal i32 @If_ObjIsAnd(ptr noundef %0) #2 {
  %2 = alloca ptr, align 8
  store ptr %0, ptr %2, align 8, !tbaa !99
  %3 = load ptr, ptr %2, align 8, !tbaa !99
  %4 = load i32, ptr %3, align 8
  %5 = and i32 %4, 15
  %6 = icmp eq i32 %5, 4
  %7 = zext i1 %6 to i32
  ret i32 %7
}

; Function Attrs: inlinehint nounwind uwtable
define internal ptr @If_ManObj(ptr noundef %0, i32 noundef %1) #2 {
  %3 = alloca ptr, align 8
  %4 = alloca i32, align 4
  store ptr %0, ptr %3, align 8, !tbaa !35
  store i32 %1, ptr %4, align 4, !tbaa !8
  %5 = load ptr, ptr %3, align 8, !tbaa !35
  %6 = getelementptr inbounds nuw %struct.If_Man_t_, ptr %5, i32 0, i32 5
  %7 = load ptr, ptr %6, align 8, !tbaa !104
  %8 = load i32, ptr %4, align 4, !tbaa !8
  %9 = call ptr @Vec_PtrEntry(ptr noundef %7, i32 noundef %8)
  ret ptr %9
}

; Function Attrs: nounwind uwtable
define float @If_CutEdgeRef(ptr noundef %0, ptr noundef %1) #0 {
  %3 = alloca ptr, align 8
  %4 = alloca ptr, align 8
  %5 = alloca ptr, align 8
  %6 = alloca float, align 4
  %7 = alloca i32, align 4
  store ptr %0, ptr %3, align 8, !tbaa !35
  store ptr %1, ptr %4, align 8, !tbaa !15
  call void @llvm.lifetime.start.p0(i64 8, ptr %5) #9
  call void @llvm.lifetime.start.p0(i64 4, ptr %6) #9
  call void @llvm.lifetime.start.p0(i64 4, ptr %7) #9
  %8 = load ptr, ptr %4, align 8, !tbaa !15
  %9 = getelementptr inbounds nuw %struct.If_Cut_t_, ptr %8, i32 0, i32 7
  %10 = load i64, ptr %9, align 4
  %11 = lshr i64 %10, 24
  %12 = and i64 %11, 255
  %13 = trunc i64 %12 to i32
  %14 = uitofp i32 %13 to float
  store float %14, ptr %6, align 4, !tbaa !106
  store i32 0, ptr %7, align 4, !tbaa !8
  br label %15

15:                                               ; preds = %54, %2
  %16 = load i32, ptr %7, align 4, !tbaa !8
  %17 = load ptr, ptr %4, align 8, !tbaa !15
  %18 = getelementptr inbounds nuw %struct.If_Cut_t_, ptr %17, i32 0, i32 7
  %19 = load i64, ptr %18, align 4
  %20 = lshr i64 %19, 24
  %21 = and i64 %20, 255
  %22 = trunc i64 %21 to i32
  %23 = icmp slt i32 %16, %22
  br i1 %23, label %24, label %34

24:                                               ; preds = %15
  %25 = load ptr, ptr %3, align 8, !tbaa !35
  %26 = load ptr, ptr %4, align 8, !tbaa !15
  %27 = getelementptr inbounds nuw %struct.If_Cut_t_, ptr %26, i32 0, i32 8
  %28 = load i32, ptr %7, align 4, !tbaa !8
  %29 = sext i32 %28 to i64
  %30 = getelementptr inbounds [0 x i32], ptr %27, i64 0, i64 %29
  %31 = load i32, ptr %30, align 4, !tbaa !8
  %32 = call ptr @If_ManObj(ptr noundef %25, i32 noundef %31)
  store ptr %32, ptr %5, align 8, !tbaa !99
  %33 = icmp ne ptr %32, null
  br label %34

34:                                               ; preds = %24, %15
  %35 = phi i1 [ false, %15 ], [ %33, %24 ]
  br i1 %35, label %36, label %57

36:                                               ; preds = %34
  %37 = load ptr, ptr %5, align 8, !tbaa !99
  %38 = getelementptr inbounds nuw %struct.If_Obj_t_, ptr %37, i32 0, i32 3
  %39 = load i32, ptr %38, align 4, !tbaa !107
  %40 = add nsw i32 %39, 1
  store i32 %40, ptr %38, align 4, !tbaa !107
  %41 = icmp sgt i32 %39, 0
  br i1 %41, label %46, label %42

42:                                               ; preds = %36
  %43 = load ptr, ptr %5, align 8, !tbaa !99
  %44 = call i32 @If_ObjIsAnd(ptr noundef %43)
  %45 = icmp ne i32 %44, 0
  br i1 %45, label %47, label %46

46:                                               ; preds = %42, %36
  br label %54

47:                                               ; preds = %42
  %48 = load ptr, ptr %3, align 8, !tbaa !35
  %49 = load ptr, ptr %5, align 8, !tbaa !99
  %50 = call ptr @If_ObjCutBest(ptr noundef %49)
  %51 = call float @If_CutEdgeRef(ptr noundef %48, ptr noundef %50)
  %52 = load float, ptr %6, align 4, !tbaa !106
  %53 = fadd float %52, %51
  store float %53, ptr %6, align 4, !tbaa !106
  br label %54

54:                                               ; preds = %47, %46
  %55 = load i32, ptr %7, align 4, !tbaa !8
  %56 = add nsw i32 %55, 1
  store i32 %56, ptr %7, align 4, !tbaa !8
  br label %15, !llvm.loop !122

57:                                               ; preds = %34
  %58 = load float, ptr %6, align 4, !tbaa !106
  call void @llvm.lifetime.end.p0(i64 4, ptr %7) #9
  call void @llvm.lifetime.end.p0(i64 4, ptr %6) #9
  call void @llvm.lifetime.end.p0(i64 8, ptr %5) #9
  ret float %58
}