; Function Attrs: nofree nosync nounwind memory(readwrite, inaccessiblemem: none) uwtable
define float @If_CutEdgeRef(ptr noundef readonly captures(none) %0, ptr noundef readonly captures(none) %1) local_unnamed_addr #8 {
  %3 = getelementptr inbounds nuw i8, ptr %1, i64 28
  %4 = load i64, ptr %3, align 4
  %5 = trunc i64 %4 to i32
  %6 = lshr i32 %5, 24
  %7 = uitofp nneg i32 %6 to float
  %8 = getelementptr inbounds nuw i8, ptr %1, i64 36
  %9 = and i64 %4, 4278190080
  %.not21 = icmp eq i64 %9, 0
  br i1 %.not21, label %.critedge, label %.lr.ph

.lr.ph:                                           ; preds = %2
  %10 = getelementptr i8, ptr %0, i64 40
  br label %11

11:                                               ; preds = %.lr.ph, %29
  %indvars.iv = phi i64 [ 0, %.lr.ph ], [ %indvars.iv.next, %29 ]
  %.01217 = phi float [ %7, %.lr.ph ], [ %.1, %29 ]
  %12 = getelementptr inbounds nuw [0 x i32], ptr %8, i64 0, i64 %indvars.iv
  %13 = load i32, ptr %12, align 4, !tbaa !14
  %.val = load ptr, ptr %10, align 8, !tbaa !92
  %14 = getelementptr i8, ptr %.val, i64 8
  %.val.val = load ptr, ptr %14, align 8, !tbaa !93
  %15 = sext i32 %13 to i64
  %16 = getelementptr inbounds ptr, ptr %.val.val, i64 %15
  %17 = load ptr, ptr %16, align 8, !tbaa !95
  %.not = icmp eq ptr %17, null
  br i1 %.not, label %.critedge, label %18

18:                                               ; preds = %11
  %19 = getelementptr inbounds nuw i8, ptr %17, i64 12
  %20 = load i32, ptr %19, align 4, !tbaa !104
  %21 = add nsw i32 %20, 1
  store i32 %21, ptr %19, align 4, !tbaa !104
  %22 = icmp sgt i32 %20, 0
  br i1 %22, label %29, label %23

23:                                               ; preds = %18
  %.val15 = load i32, ptr %17, align 8
  %24 = and i32 %.val15, 15
  %.not16 = icmp eq i32 %24, 4
  br i1 %.not16, label %25, label %29

25:                                               ; preds = %23
  %26 = getelementptr inbounds nuw i8, ptr %17, i64 80
  %27 = tail call float @If_CutEdgeRef(ptr noundef nonnull %0, ptr noundef nonnull %26)
  %28 = fadd float %.01217, %27
  br label %29

29:                                               ; preds = %18, %23, %25
  %.1 = phi float [ %.01217, %18 ], [ %28, %25 ], [ %.01217, %23 ]
  %indvars.iv.next = add nuw nsw i64 %indvars.iv, 1
  %30 = load i64, ptr %3, align 4
  %31 = lshr i64 %30, 24
  %32 = and i64 %31, 255
  %33 = icmp samesign ult i64 %indvars.iv.next, %32
  br i1 %33, label %11, label %.critedge, !llvm.loop !117

.critedge:                                        ; preds = %11, %29, %2
  %.012.lcssa = phi float [ %7, %2 ], [ %.1, %29 ], [ %.01217, %11 ]
  ret float %.012.lcssa
}